BL51 BANKED LINKER/LOCATER V6.22.2.0                                                    11/02/2018  17:33:08  PAGE 1


BL51 BANKED LINKER/LOCATER V6.22.2.0, INVOKED BY:
F:\KEIL C51\C51\BIN\BL51.EXE .\main.obj TO test RAMSIZE (256)


INPUT MODULES INCLUDED:
  .\main.obj (MAIN)


LINK MAP OF MODULE:  test (MAIN)


            TYPE    BASE      LENGTH    RELOCATION   SEGMENT NAME
            -----------------------------------------------------

            * * * * * * *   D A T A   M E M O R Y   * * * * * * *
            REG     0000H     0008H     ABSOLUTE     "REG BANK 0"

            * * * * * * *   C O D E   M E M O R Y   * * * * * * *
            CODE    0000H     2019H     ABSOLUTE     



SYMBOL TABLE OF MODULE:  test (MAIN)

  VALUE           TYPE          NAME
  ----------------------------------

  -------         MODULE        MAIN
  D:00E0H         SYMBOL        ACC
  B:0090H.0       SYMBOL        BEEP
  C:101CH         SYMBOL        DELAY100MS
  C:101EH         SYMBOL        DELAY100MS_1
  C:1020H         SYMBOL        DELAY100MS_2
  C:1022H         SYMBOL        DELAY100MS_3
  C:1024H         SYMBOL        DELAY100MS_4
  N:006FH         SYMBOL        DELAYTIMES_100MS
  B:00A8H.7       SYMBOL        EA
  B:00A8H.0       SYMBOL        EX0
  C:2000H         SYMBOL        INT0_ISR
  B:0088H.0       SYMBOL        IT0
  B:00A0H.4       SYMBOL        LED1
  B:00A0H.5       SYMBOL        LED2
  B:00A0H.6       SYMBOL        LED3
  B:00A0H.7       SYMBOL        LED4
  C:1000H         SYMBOL        MAIN
  D:0090H         SYMBOL        P1
  N:0092H         SYMBOL        P1M0
  N:0091H         SYMBOL        P1M1
  D:00A0H         SYMBOL        P2
  D:00D0H         SYMBOL        PSW
  B:00B8H.0       SYMBOL        PX0
  B:00D0H.3       SYMBOL        RS0
  B:00D0H.4       SYMBOL        RS1
  D:0081H         SYMBOL        SP
  C:1016H         SYMBOL        START1
  C:200AH         SYMBOL        TWEET
  C:102DH         SYMBOL        WATERLED
  C:0000H         LINE#         15
BL51 BANKED LINKER/LOCATER V6.22.2.0                                                  11/02/2018  17:33:08  PAGE 2


  C:0003H         LINE#         17
  C:1000H         LINE#         21
  C:1003H         LINE#         22
  C:1005H         LINE#         23
  C:1007H         LINE#         24
  C:1009H         LINE#         25
  C:100BH         LINE#         26
  C:100EH         LINE#         27
  C:1011H         LINE#         28
  C:1013H         LINE#         29
  C:1016H         LINE#         32
  C:1019H         LINE#         33
  C:101CH         LINE#         39
  C:101EH         LINE#         40
  C:1020H         LINE#         41
  C:1022H         LINE#         42
  C:1024H         LINE#         43
  C:1026H         LINE#         44
  C:1028H         LINE#         45
  C:102AH         LINE#         46
  C:102CH         LINE#         47
  C:102DH         LINE#         54
  C:102FH         LINE#         55
  C:1031H         LINE#         56
  C:1033H         LINE#         57
  C:1035H         LINE#         58
  C:1038H         LINE#         59
  C:103BH         LINE#         61
  C:103DH         LINE#         62
  C:103FH         LINE#         63
  C:1041H         LINE#         64
  C:1043H         LINE#         65
  C:1046H         LINE#         66
  C:1049H         LINE#         68
  C:104BH         LINE#         69
  C:104DH         LINE#         70
  C:104FH         LINE#         71
  C:1051H         LINE#         72
  C:1054H         LINE#         73
  C:1057H         LINE#         75
  C:1059H         LINE#         76
  C:105BH         LINE#         77
  C:105DH         LINE#         78
  C:105FH         LINE#         79
  C:1062H         LINE#         80
  C:1065H         LINE#         81
  C:2000H         LINE#         89
  C:2002H         LINE#         90
  C:2004H         LINE#         91
  C:2006H         LINE#         92
  C:2008H         LINE#         95
  C:200AH         LINE#         97
  C:200CH         LINE#         98
  C:200FH         LINE#         99
  C:2012H         LINE#         100
  C:2014H         LINE#         102
  C:2016H         LINE#         103
BL51 BANKED LINKER/LOCATER V6.22.2.0                                                  11/02/2018  17:33:08  PAGE 3


  C:2018H         LINE#         104
  -------         ENDMOD        MAIN

******************************************************************************
* RESTRICTED VERSION WITH 0800H BYTE CODE SIZE LIMIT; USED: 0085H BYTE ( 6%) *
******************************************************************************

Program Size: data=8.0 xdata=0 code=8217
LINK/LOCATE RUN COMPLETE.  0 WARNING(S),  0 ERROR(S)
